target datalayout = "e-m:e-p270:32:32-p271:32:32-p272:64:64-i64:64-i128:128-f80:128-n8:16:32:64-S128"
target triple = "x86_64-pc-linux-gnu"

%class.b3HashedOverlappingPairCache = type { %class.b3OverlappingPairCache, %class.b3AlignedObjectArray, ptr, %class.b3AlignedObjectArray.0, %class.b3AlignedObjectArray.0 }
%class.b3OverlappingPairCache = type { ptr }
%class.b3AlignedObjectArray = type <{ [4 x i8], i32, i32, [4 x i8], ptr, i8, [7 x i8] }>
%class.b3AlignedObjectArray.0 = type <{ [4 x i8], i32, i32, [4 x i8], ptr, i8, [7 x i8] }>
%struct.b3Int4 = type { %union.anon }
%union.anon = type { %struct.anon }
%struct.anon = type { i32, i32, i32, i32 }

@b3g_findPairs = dso_local global i32 0, align 4

; Function Attrs: inlinehint mustprogress nounwind uwtable
define linkonce_odr dso_local noundef zeroext i1 @_ZN28b3HashedOverlappingPairCache10equalsPairERK6b3Int4ii(ptr noundef nonnull align 8 dereferenceable(112) %0, ptr noundef nonnull align 16 dereferenceable(16) %1, i32 noundef %2, i32 noundef %3) #1 comdat align 2 {
  %5 = alloca ptr, align 8
  %6 = alloca ptr, align 8
  %7 = alloca i32, align 4
  %8 = alloca i32, align 4
  store ptr %0, ptr %5, align 8, !tbaa !4
  store ptr %1, ptr %6, align 8, !tbaa !30
  store i32 %2, ptr %7, align 4, !tbaa !23
  store i32 %3, ptr %8, align 4, !tbaa !23
  %9 = load ptr, ptr %6, align 8, !tbaa !30
  %10 = getelementptr inbounds nuw %struct.b3Int4, ptr %9, i32 0, i32 0
  %11 = getelementptr inbounds nuw %struct.anon, ptr %10, i32 0, i32 0
  %12 = load i32, ptr %11, align 16, !tbaa !38
  %13 = load i32, ptr %7, align 4, !tbaa !23
  %14 = icmp eq i32 %12, %13
  br i1 %14, label %15, label %22

15:                                               ; preds = %4
  %16 = load ptr, ptr %6, align 8, !tbaa !30
  %17 = getelementptr inbounds nuw %struct.b3Int4, ptr %16, i32 0, i32 0
  %18 = getelementptr inbounds nuw %struct.anon, ptr %17, i32 0, i32 1
  %19 = load i32, ptr %18, align 4, !tbaa !38
  %20 = load i32, ptr %8, align 4, !tbaa !23
  %21 = icmp eq i32 %19, %20
  br label %22

22:                                               ; preds = %15, %4
  %23 = phi i1 [ false, %4 ], [ %21, %15 ]
  ret i1 %23
}

; Function Attrs: inlinehint mustprogress nounwind uwtable
define linkonce_odr dso_local noundef nonnull align 16 dereferenceable(16) ptr @_ZN20b3AlignedObjectArrayI6b3Int4EixEi(ptr noundef nonnull align 8 dereferenceable(25) %0, i32 noundef %1) #1 comdat align 2 {
  %3 = alloca ptr, align 8
  %4 = alloca i32, align 4
  store ptr %0, ptr %3, align 8, !tbaa !26
  store i32 %1, ptr %4, align 4, !tbaa !23
  %5 = load ptr, ptr %3, align 8
  %6 = getelementptr inbounds nuw %class.b3AlignedObjectArray, ptr %5, i32 0, i32 4
  %7 = load ptr, ptr %6, align 8, !tbaa !33
  %8 = load i32, ptr %4, align 4, !tbaa !23
  %9 = sext i32 %8 to i64
  %10 = getelementptr inbounds %struct.b3Int4, ptr %7, i64 %9
  ret ptr %10
}

; Function Attrs: inlinehint mustprogress nounwind uwtable
define linkonce_odr dso_local noundef nonnull align 4 dereferenceable(4) ptr @_ZN20b3AlignedObjectArrayIiEixEi(ptr noundef nonnull align 8 dereferenceable(25) %0, i32 noundef %1) #1 comdat align 2 {
  %3 = alloca ptr, align 8
  %4 = alloca i32, align 4
  store ptr %0, ptr %3, align 8, !tbaa !28
  store i32 %1, ptr %4, align 4, !tbaa !23
  %5 = load ptr, ptr %3, align 8
  %6 = getelementptr inbounds nuw %class.b3AlignedObjectArray.0, ptr %5, i32 0, i32 4
  %7 = load ptr, ptr %6, align 8, !tbaa !56
  %8 = load i32, ptr %4, align 4, !tbaa !23
  %9 = sext i32 %8 to i64
  %10 = getelementptr inbounds i32, ptr %7, i64 %9
  ret ptr %10
}

; Function Attrs: inlinehint mustprogress nounwind uwtable
define linkonce_odr dso_local noundef i32 @_ZNK20b3AlignedObjectArrayIiE4sizeEv(ptr noundef nonnull align 8 dereferenceable(25) %0) #1 comdat align 2 {
  %2 = alloca ptr, align 8
  store ptr %0, ptr %2, align 8, !tbaa !28
  %3 = load ptr, ptr %2, align 8
  %4 = getelementptr inbounds nuw %class.b3AlignedObjectArray.0, ptr %3, i32 0, i32 1
  %5 = load i32, ptr %4, align 4, !tbaa !55
  ret i32 %5
}

; Function Attrs: inlinehint mustprogress nounwind uwtable
define linkonce_odr dso_local noundef i32 @_ZNK20b3AlignedObjectArrayI6b3Int4E8capacityEv(ptr noundef nonnull align 8 dereferenceable(25) %0) #1 comdat align 2 {
  %2 = alloca ptr, align 8
  store ptr %0, ptr %2, align 8, !tbaa !26
  %3 = load ptr, ptr %2, align 8
  %4 = getelementptr inbounds nuw %class.b3AlignedObjectArray, ptr %3, i32 0, i32 2
  %5 = load i32, ptr %4, align 8, !tbaa !34
  ret i32 %5
}

; Function Attrs: inlinehint mustprogress nounwind uwtable
define linkonce_odr dso_local noundef i32 @_ZN28b3HashedOverlappingPairCache7getHashEjj(ptr noundef nonnull align 8 dereferenceable(112) %0, i32 noundef %1, i32 noundef %2) #1 comdat align 2 {
  %4 = alloca ptr, align 8
  %5 = alloca i32, align 4
  %6 = alloca i32, align 4
  %7 = alloca i32, align 4
  store ptr %0, ptr %4, align 8, !tbaa !4
  store i32 %1, ptr %5, align 4, !tbaa !23
  store i32 %2, ptr %6, align 4, !tbaa !23
  call void @llvm.lifetime.start.p0(i64 4, ptr %7) #10
  %8 = load i32, ptr %5, align 4, !tbaa !23
  %9 = load i32, ptr %6, align 4, !tbaa !23
  %10 = shl i32 %9, 16
  %11 = or i32 %8, %10
  store i32 %11, ptr %7, align 4, !tbaa !23
  %12 = load i32, ptr %7, align 4, !tbaa !23
  %13 = shl i32 %12, 15
  %14 = xor i32 %13, -1
  %15 = load i32, ptr %7, align 4, !tbaa !23
  %16 = add nsw i32 %15, %14
  store i32 %16, ptr %7, align 4, !tbaa !23
  %17 = load i32, ptr %7, align 4, !tbaa !23
  %18 = ashr i32 %17, 10
  %19 = load i32, ptr %7, align 4, !tbaa !23
  %20 = xor i32 %19, %18
  store i32 %20, ptr %7, align 4, !tbaa !23
  %21 = load i32, ptr %7, align 4, !tbaa !23
  %22 = shl i32 %21, 3
  %23 = load i32, ptr %7, align 4, !tbaa !23
  %24 = add nsw i32 %23, %22
  store i32 %24, ptr %7, align 4, !tbaa !23
  %25 = load i32, ptr %7, align 4, !tbaa !23
  %26 = ashr i32 %25, 6
  %27 = load i32, ptr %7, align 4, !tbaa !23
  %28 = xor i32 %27, %26
  store i32 %28, ptr %7, align 4, !tbaa !23
  %29 = load i32, ptr %7, align 4, !tbaa !23
  %30 = shl i32 %29, 11
  %31 = xor i32 %30, -1
  %32 = load i32, ptr %7, align 4, !tbaa !23
  %33 = add nsw i32 %32, %31
  store i32 %33, ptr %7, align 4, !tbaa !23
  %34 = load i32, ptr %7, align 4, !tbaa !23
  %35 = ashr i32 %34, 16
  %36 = load i32, ptr %7, align 4, !tbaa !23
  %37 = xor i32 %36, %35
  store i32 %37, ptr %7, align 4, !tbaa !23
  %38 = load i32, ptr %7, align 4, !tbaa !23
  call void @llvm.lifetime.end.p0(i64 4, ptr %7) #10
  ret i32 %38
}

; Function Attrs: inlinehint mustprogress nounwind uwtable
define linkonce_odr dso_local void @_Z6b3SwapIiEvRT_S1_(ptr noundef nonnull align 4 dereferenceable(4) %0, ptr noundef nonnull align 4 dereferenceable(4) %1) #1 comdat {
  %3 = alloca ptr, align 8
  %4 = alloca ptr, align 8
  %5 = alloca i32, align 4
  store ptr %0, ptr %3, align 8, !tbaa !54
  store ptr %1, ptr %4, align 8, !tbaa !54
  call void @llvm.lifetime.start.p0(i64 4, ptr %5) #10
  %6 = load ptr, ptr %3, align 8, !tbaa !54
  %7 = load i32, ptr %6, align 4, !tbaa !23
  store i32 %7, ptr %5, align 4, !tbaa !23
  %8 = load ptr, ptr %4, align 8, !tbaa !54
  %9 = load i32, ptr %8, align 4, !tbaa !23
  %10 = load ptr, ptr %3, align 8, !tbaa !54
  store i32 %9, ptr %10, align 4, !tbaa !23
  %11 = load i32, ptr %5, align 4, !tbaa !23
  %12 = load ptr, ptr %4, align 8, !tbaa !54
  store i32 %11, ptr %12, align 4, !tbaa !23
  call void @llvm.lifetime.end.p0(i64 4, ptr %5) #10
  ret void
}

; Function Attrs: mustprogress uwtable
define dso_local noundef ptr @_ZN28b3HashedOverlappingPairCache8findPairEii(ptr noundef nonnull align 8 dereferenceable(112) %0, i32 noundef %1, i32 noundef %2) unnamed_addr #0 align 2 {
  %4 = alloca ptr, align 8
  %5 = alloca ptr, align 8
  %6 = alloca i32, align 4
  %7 = alloca i32, align 4
  %8 = alloca i32, align 4
  %9 = alloca i32, align 4
  %10 = alloca i32, align 4
  %11 = alloca i32, align 4
  %12 = alloca i32, align 4
  store ptr %0, ptr %5, align 8, !tbaa !4
  store i32 %1, ptr %6, align 4, !tbaa !23
  store i32 %2, ptr %7, align 4, !tbaa !23
  %13 = load ptr, ptr %5, align 8
  %14 = load i32, ptr @b3g_findPairs, align 4, !tbaa !23
  %15 = add nsw i32 %14, 1
  store i32 %15, ptr @b3g_findPairs, align 4, !tbaa !23
  %16 = load i32, ptr %6, align 4, !tbaa !23
  %17 = load i32, ptr %7, align 4, !tbaa !23
  %18 = icmp sgt i32 %16, %17
  br i1 %18, label %19, label %20

19:                                               ; preds = %3
  call void @_Z6b3SwapIiEvRT_S1_(ptr noundef nonnull align 4 dereferenceable(4) %6, ptr noundef nonnull align 4 dereferenceable(4) %7)
  br label %20

20:                                               ; preds = %19, %3
  call void @llvm.lifetime.start.p0(i64 4, ptr %8) #10
  %21 = load i32, ptr %6, align 4, !tbaa !23
  store i32 %21, ptr %8, align 4, !tbaa !23
  call void @llvm.lifetime.start.p0(i64 4, ptr %9) #10
  %22 = load i32, ptr %7, align 4, !tbaa !23
  store i32 %22, ptr %9, align 4, !tbaa !23
  call void @llvm.lifetime.start.p0(i64 4, ptr %10) #10
  %23 = load i32, ptr %8, align 4, !tbaa !23
  %24 = load i32, ptr %9, align 4, !tbaa !23
  %25 = call noundef i32 @_ZN28b3HashedOverlappingPairCache7getHashEjj(ptr noundef nonnull align 8 dereferenceable(112) %13, i32 noundef %23, i32 noundef %24)
  %26 = getelementptr inbounds nuw %class.b3HashedOverlappingPairCache, ptr %13, i32 0, i32 1
  %27 = call noundef i32 @_ZNK20b3AlignedObjectArrayI6b3Int4E8capacityEv(ptr noundef nonnull align 8 dereferenceable(25) %26)
  %28 = sub nsw i32 %27, 1
  %29 = and i32 %25, %28
  store i32 %29, ptr %10, align 4, !tbaa !23
  %30 = load i32, ptr %10, align 4, !tbaa !23
  %31 = getelementptr inbounds nuw %class.b3HashedOverlappingPairCache, ptr %13, i32 0, i32 3
  %32 = call noundef i32 @_ZNK20b3AlignedObjectArrayIiE4sizeEv(ptr noundef nonnull align 8 dereferenceable(25) %31)
  %33 = icmp sge i32 %30, %32
  br i1 %33, label %34, label %35

34:                                               ; preds = %20
  store ptr null, ptr %4, align 8
  store i32 1, ptr %11, align 4
  br label %68

35:                                               ; preds = %20
  call void @llvm.lifetime.start.p0(i64 4, ptr %12) #10
  %36 = getelementptr inbounds nuw %class.b3HashedOverlappingPairCache, ptr %13, i32 0, i32 3
  %37 = load i32, ptr %10, align 4, !tbaa !23
  %38 = call noundef nonnull align 4 dereferenceable(4) ptr @_ZN20b3AlignedObjectArrayIiEixEi(ptr noundef nonnull align 8 dereferenceable(25) %36, i32 noundef %37)
  %39 = load i32, ptr %38, align 4, !tbaa !23
  store i32 %39, ptr %12, align 4, !tbaa !23
  br label %40

40:                                               ; preds = %54, %35
  %41 = load i32, ptr %12, align 4, !tbaa !23
  %42 = icmp ne i32 %41, -1
  br i1 %42, label %43, label %52

43:                                               ; preds = %40
  %44 = getelementptr inbounds nuw %class.b3HashedOverlappingPairCache, ptr %13, i32 0, i32 1
  %45 = load i32, ptr %12, align 4, !tbaa !23
  %46 = call noundef nonnull align 16 dereferenceable(16) ptr @_ZN20b3AlignedObjectArrayI6b3Int4EixEi(ptr noundef nonnull align 8 dereferenceable(25) %44, i32 noundef %45)
  %47 = load i32, ptr %8, align 4, !tbaa !23
  %48 = load i32, ptr %9, align 4, !tbaa !23
  %49 = call noundef zeroext i1 @_ZN28b3HashedOverlappingPairCache10equalsPairERK6b3Int4ii(ptr noundef nonnull align 8 dereferenceable(112) %13, ptr noundef nonnull align 16 dereferenceable(16) %46, i32 noundef %47, i32 noundef %48)
  %50 = zext i1 %49 to i32
  %51 = icmp eq i32 %50, 0
  br label %52

52:                                               ; preds = %43, %40
  %53 = phi i1 [ false, %40 ], [ %51, %43 ]
  br i1 %53, label %54, label %59

54:                                               ; preds = %52
  %55 = getelementptr inbounds nuw %class.b3HashedOverlappingPairCache, ptr %13, i32 0, i32 4
  %56 = load i32, ptr %12, align 4, !tbaa !23
  %57 = call noundef nonnull align 4 dereferenceable(4) ptr @_ZN20b3AlignedObjectArrayIiEixEi(ptr noundef nonnull align 8 dereferenceable(25) %55, i32 noundef %56)
  %58 = load i32, ptr %57, align 4, !tbaa !23
  store i32 %58, ptr %12, align 4, !tbaa !23
  br label %40, !llvm.loop !53

59:                                               ; preds = %52
  %60 = load i32, ptr %12, align 4, !tbaa !23
  %61 = icmp eq i32 %60, -1
  br i1 %61, label %62, label %63

62:                                               ; preds = %59
  store ptr null, ptr %4, align 8
  store i32 1, ptr %11, align 4
  br label %67

63:                                               ; preds = %59
  %64 = getelementptr inbounds nuw %class.b3HashedOverlappingPairCache, ptr %13, i32 0, i32 1
  %65 = load i32, ptr %12, align 4, !tbaa !23
  %66 = call noundef nonnull align 16 dereferenceable(16) ptr @_ZN20b3AlignedObjectArrayI6b3Int4EixEi(ptr noundef nonnull align 8 dereferenceable(25) %64, i32 noundef %65)
  store ptr %66, ptr %4, align 8
  store i32 1, ptr %11, align 4
  br label %67

67:                                               ; preds = %63, %62
  call void @llvm.lifetime.end.p0(i64 4, ptr %12) #10
  br label %68

68:                                               ; preds = %67, %34
  call void @llvm.lifetime.end.p0(i64 4, ptr %10) #10
  call void @llvm.lifetime.end.p0(i64 4, ptr %9) #10
  call void @llvm.lifetime.end.p0(i64 4, ptr %8) #10
  %69 = load ptr, ptr %4, align 8
  ret ptr %69
}