; Function Attrs: mustprogress nofree norecurse nosync nounwind memory(readwrite, argmem: read, inaccessiblemem: none) uwtable
define dso_local noundef ptr @_ZN28b3HashedOverlappingPairCache8findPairEii(ptr noundef nonnull readonly align 8 captures(none) dereferenceable(112) %0, i32 noundef %1, i32 noundef %2) unnamed_addr #5 align 2 {
  %4 = load i32, ptr @b3g_findPairs, align 4, !tbaa !35
  %5 = add nsw i32 %4, 1
  store i32 %5, ptr @b3g_findPairs, align 4, !tbaa !35
  %spec.select = tail call i32 @llvm.smin.i32(i32 %1, i32 %2)
  %spec.select20 = tail call i32 @llvm.smax.i32(i32 %1, i32 %2)
  %6 = shl i32 %spec.select20, 16
  %7 = or i32 %6, %spec.select
  %8 = shl i32 %7, 15
  %9 = xor i32 %8, -1
  %10 = add nsw i32 %7, %9
  %11 = ashr i32 %10, 10
  %12 = xor i32 %11, %10
  %13 = mul i32 %12, 9
  %14 = ashr i32 %13, 6
  %15 = xor i32 %14, %13
  %16 = shl i32 %15, 11
  %17 = xor i32 %16, -1
  %18 = add nsw i32 %15, %17
  %19 = ashr i32 %18, 16
  %20 = xor i32 %19, %18
  %21 = getelementptr inbounds nuw i8, ptr %0, i64 16
  %22 = load i32, ptr %21, align 8, !tbaa !17
  %23 = add nsw i32 %22, -1
  %24 = and i32 %23, %20
  %25 = getelementptr inbounds nuw i8, ptr %0, i64 52
  %26 = load i32, ptr %25, align 4, !tbaa !27
  %.not = icmp slt i32 %24, %26
  br i1 %.not, label %27, label %.critedge

27:                                               ; preds = %3
  %28 = getelementptr inbounds nuw i8, ptr %0, i64 64
  %29 = load ptr, ptr %28, align 8, !tbaa !26
  %30 = sext i32 %24 to i64
  %31 = getelementptr inbounds i32, ptr %29, i64 %30
  %.021 = load i32, ptr %31, align 4, !tbaa !35
  %cond22 = icmp eq i32 %.021, -1
  br i1 %cond22, label %.critedge, label %.lr.ph

.lr.ph:                                           ; preds = %27
  %32 = getelementptr inbounds nuw i8, ptr %0, i64 24
  %33 = load ptr, ptr %32, align 8, !tbaa !15
  %34 = getelementptr inbounds nuw i8, ptr %0, i64 96
  %35 = load ptr, ptr %34, align 8
  br label %36

36:                                               ; preds = %.lr.ph, %45
  %.023 = phi i32 [ %.021, %.lr.ph ], [ %.0, %45 ]
  %37 = sext i32 %.023 to i64
  %38 = getelementptr inbounds %struct.b3Int4, ptr %33, i64 %37
  %39 = load i32, ptr %38, align 16, !tbaa !30
  %40 = icmp eq i32 %39, %spec.select
  %41 = getelementptr inbounds nuw i8, ptr %38, i64 4
  %42 = load i32, ptr %41, align 4
  %43 = icmp eq i32 %42, %spec.select20
  %44 = select i1 %40, i1 %43, i1 false
  br i1 %44, label %.critedge, label %45

45:                                               ; preds = %36
  %46 = getelementptr inbounds i32, ptr %35, i64 %37
  %.0 = load i32, ptr %46, align 4, !tbaa !35
  %cond = icmp eq i32 %.0, -1
  br i1 %cond, label %.critedge, label %36, !llvm.loop !47

.critedge:                                        ; preds = %45, %36, %27, %3
  %.012 = phi ptr [ null, %3 ], [ null, %27 ], [ null, %45 ], [ %38, %36 ]
  ret ptr %.012
}